; ModuleID = '45/2297.c'
source_filename = "45/2297.c"
target datalayout = "e-m:e-p270:32:32-p271:32:32-p272:64:64-i64:64-f80:128-n8:16:32:64-S128"
target triple = "x86_64-pc-linux-gnu"

@.str = private unnamed_addr constant [5 x i8] c"%s%s\00", align 1
@.str.1 = private unnamed_addr constant [4 x i8] c"%d\0A\00", align 1

; Function Attrs: noinline nounwind uwtable
define dso_local i32 @main() #0 {
  %1 = alloca i32, align 4
  %2 = alloca [50 x i8], align 16
  %3 = alloca [50 x i8], align 16
  store i32 0, i32* %1, align 4
  %4 = getelementptr inbounds [50 x i8], [50 x i8]* %2, i64 0, i64 0
  %5 = getelementptr inbounds [50 x i8], [50 x i8]* %3, i64 0, i64 0
  %6 = call i32 (i8*, ...) @__isoc99_scanf(i8* getelementptr inbounds ([5 x i8], [5 x i8]* @.str, i64 0, i64 0), i8* %4, i8* %5)
  %7 = getelementptr inbounds [50 x i8], [50 x i8]* %3, i64 0, i64 0
  %8 = getelementptr inbounds [50 x i8], [50 x i8]* %2, i64 0, i64 0
  %9 = call i32 @strpos(i8* %7, i8* %8)
  %10 = call i32 (i8*, ...) @printf(i8* getelementptr inbounds ([4 x i8], [4 x i8]* @.str.1, i64 0, i64 0), i32 %9)
  ret i32 0
}

declare dso_local i32 @__isoc99_scanf(i8*, ...) #1

declare dso_local i32 @printf(i8*, ...) #1

; Function Attrs: noinline nounwind uwtable
define dso_local i32 @strpos(i8* %0, i8* %1) #0 {
  %3 = alloca i32, align 4
  %4 = alloca i8*, align 8
  %5 = alloca i8*, align 8
  %6 = alloca i32, align 4
  %7 = alloca i32, align 4
  %8 = alloca [50 x i32], align 16
  %9 = alloca i32, align 4
  %10 = alloca i32, align 4
  %11 = alloca i32, align 4
  store i8* %0, i8** %4, align 8
  store i8* %1, i8** %5, align 8
  %12 = load i8*, i8** %4, align 8
  %13 = call i64 @strlen(i8* %12) #3
  %14 = trunc i64 %13 to i32
  store i32 %14, i32* %6, align 4
  %15 = load i8*, i8** %5, align 8
  %16 = call i64 @strlen(i8* %15) #3
  %17 = trunc i64 %16 to i32
  store i32 %17, i32* %7, align 4
  %18 = getelementptr inbounds [50 x i32], [50 x i32]* %8, i64 0, i64 1
  store i32 0, i32* %18, align 4
  store i32 2, i32* %9, align 4
  br label %19

19:                                               ; preds = %91, %2
  %20 = load i32, i32* %9, align 4
  %21 = load i32, i32* %7, align 4
  %22 = icmp slt i32 %20, %21
  br i1 %22, label %23, label %94

23:                                               ; preds = %19
  %24 = load i32, i32* %9, align 4
  %25 = sub nsw i32 %24, 1
  %26 = sext i32 %25 to i64
  %27 = getelementptr inbounds [50 x i32], [50 x i32]* %8, i64 0, i64 %26
  %28 = load i32, i32* %27, align 4
  store i32 %28, i32* %10, align 4
  br label %29

29:                                               ; preds = %49, %23
  %30 = load i8*, i8** %5, align 8
  %31 = load i32, i32* %10, align 4
  %32 = sext i32 %31 to i64
  %33 = getelementptr inbounds i8, i8* %30, i64 %32
  %34 = load i8, i8* %33, align 1
  %35 = sext i8 %34 to i32
  %36 = load i8*, i8** %5, align 8
  %37 = load i32, i32* %9, align 4
  %38 = sub nsw i32 %37, 1
  %39 = sext i32 %38 to i64
  %40 = getelementptr inbounds i8, i8* %36, i64 %39
  %41 = load i8, i8* %40, align 1
  %42 = sext i8 %41 to i32
  %43 = icmp ne i32 %35, %42
  br i1 %43, label %44, label %47

44:                                               ; preds = %29
  %45 = load i32, i32* %10, align 4
  %46 = icmp sgt i32 %45, 0
  br label %47

47:                                               ; preds = %44, %29
  %48 = phi i1 [ false, %29 ], [ %46, %44 ]
  br i1 %48, label %49, label %54

49:                                               ; preds = %47
  %50 = load i32, i32* %10, align 4
  %51 = sext i32 %50 to i64
  %52 = getelementptr inbounds [50 x i32], [50 x i32]* %8, i64 0, i64 %51
  %53 = load i32, i32* %52, align 4
  store i32 %53, i32* %10, align 4
  br label %29

54:                                               ; preds = %47
  %55 = load i32, i32* %10, align 4
  %56 = icmp eq i32 %55, 0
  br i1 %56, label %57, label %84

57:                                               ; preds = %54
  %58 = load i8*, i8** %5, align 8
  %59 = load i32, i32* %10, align 4
  %60 = sext i32 %59 to i64
  %61 = getelementptr inbounds i8, i8* %58, i64 %60
  %62 = load i8, i8* %61, align 1
  %63 = sext i8 %62 to i32
  %64 = load i8*, i8** %5, align 8
  %65 = load i32, i32* %9, align 4
  %66 = sub nsw i32 %65, 1
  %67 = sext i32 %66 to i64
  %68 = getelementptr inbounds i8, i8* %64, i64 %67
  %69 = load i8, i8* %68, align 1
  %70 = sext i8 %69 to i32
  %71 = icmp eq i32 %63, %70
  br i1 %71, label %72, label %78

72:                                               ; preds = %57
  %73 = load i32, i32* %10, align 4
  %74 = add nsw i32 %73, 1
  %75 = load i32, i32* %9, align 4
  %76 = sext i32 %75 to i64
  %77 = getelementptr inbounds [50 x i32], [50 x i32]* %8, i64 0, i64 %76
  store i32 %74, i32* %77, align 4
  br label %83

78:                                               ; preds = %57
  %79 = load i32, i32* %10, align 4
  %80 = load i32, i32* %9, align 4
  %81 = sext i32 %80 to i64
  %82 = getelementptr inbounds [50 x i32], [50 x i32]* %8, i64 0, i64 %81
  store i32 %79, i32* %82, align 4
  br label %83

83:                                               ; preds = %78, %72
  br label %90

84:                                               ; preds = %54
  %85 = load i32, i32* %10, align 4
  %86 = add nsw i32 %85, 1
  %87 = load i32, i32* %9, align 4
  %88 = sext i32 %87 to i64
  %89 = getelementptr inbounds [50 x i32], [50 x i32]* %8, i64 0, i64 %88
  store i32 %86, i32* %89, align 4
  br label %90

90:                                               ; preds = %84, %83
  br label %91

91:                                               ; preds = %90
  %92 = load i32, i32* %9, align 4
  %93 = add nsw i32 %92, 1
  store i32 %93, i32* %9, align 4
  br label %19

94:                                               ; preds = %19
  store i32 0, i32* %9, align 4
  store i32 0, i32* %10, align 4
  store i32 0, i32* %11, align 4
  br label %95

95:                                               ; preds = %153, %94
  %96 = load i32, i32* %11, align 4
  %97 = load i32, i32* %6, align 4
  %98 = load i32, i32* %7, align 4
  %99 = sub nsw i32 %97, %98
  %100 = icmp sle i32 %96, %99
  br i1 %100, label %101, label %154

101:                                              ; preds = %95
  br label %102

102:                                              ; preds = %126, %101
  %103 = load i32, i32* %9, align 4
  %104 = load i32, i32* %6, align 4
  %105 = icmp slt i32 %103, %104
  br i1 %105, label %106, label %124

106:                                              ; preds = %102
  %107 = load i32, i32* %10, align 4
  %108 = load i32, i32* %7, align 4
  %109 = icmp slt i32 %107, %108
  br i1 %109, label %110, label %124

110:                                              ; preds = %106
  %111 = load i8*, i8** %4, align 8
  %112 = load i32, i32* %9, align 4
  %113 = sext i32 %112 to i64
  %114 = getelementptr inbounds i8, i8* %111, i64 %113
  %115 = load i8, i8* %114, align 1
  %116 = sext i8 %115 to i32
  %117 = load i8*, i8** %5, align 8
  %118 = load i32, i32* %10, align 4
  %119 = sext i32 %118 to i64
  %120 = getelementptr inbounds i8, i8* %117, i64 %119
  %121 = load i8, i8* %120, align 1
  %122 = sext i8 %121 to i32
  %123 = icmp eq i32 %116, %122
  br label %124

124:                                              ; preds = %110, %106, %102
  %125 = phi i1 [ false, %106 ], [ false, %102 ], [ %123, %110 ]
  br i1 %125, label %126, label %131

126:                                              ; preds = %124
  %127 = load i32, i32* %9, align 4
  %128 = add nsw i32 %127, 1
  store i32 %128, i32* %9, align 4
  %129 = load i32, i32* %10, align 4
  %130 = add nsw i32 %129, 1
  store i32 %130, i32* %10, align 4
  br label %102

131:                                              ; preds = %124
  %132 = load i32, i32* %10, align 4
  %133 = load i32, i32* %7, align 4
  %134 = icmp eq i32 %132, %133
  br i1 %134, label %135, label %137

135:                                              ; preds = %131
  %136 = load i32, i32* %11, align 4
  store i32 %136, i32* %3, align 4
  br label %155

137:                                              ; preds = %131
  %138 = load i32, i32* %10, align 4
  %139 = icmp eq i32 %138, 0
  br i1 %139, label %140, label %144

140:                                              ; preds = %137
  %141 = load i32, i32* %9, align 4
  %142 = add nsw i32 %141, 1
  store i32 %142, i32* %9, align 4
  %143 = load i32, i32* %9, align 4
  store i32 %143, i32* %11, align 4
  br label %152

144:                                              ; preds = %137
  %145 = load i32, i32* %10, align 4
  %146 = sext i32 %145 to i64
  %147 = getelementptr inbounds [50 x i32], [50 x i32]* %8, i64 0, i64 %146
  %148 = load i32, i32* %147, align 4
  store i32 %148, i32* %10, align 4
  %149 = load i32, i32* %9, align 4
  %150 = load i32, i32* %10, align 4
  %151 = sub nsw i32 %149, %150
  store i32 %151, i32* %11, align 4
  br label %152

152:                                              ; preds = %144, %140
  br label %153

153:                                              ; preds = %152
  br label %95

154:                                              ; preds = %95
  store i32 -1, i32* %3, align 4
  br label %155

155:                                              ; preds = %154, %135
  %156 = load i32, i32* %3, align 4
  ret i32 %156
}

; Function Attrs: nounwind readonly
declare dso_local i64 @strlen(i8*) #2


!llvm.module.flags = !{!0}
!llvm.ident = !{!1}

!0 = !{i32 1, !"wchar_size", i32 4}
!1 = !{!"clang version 10.0.0-4ubuntu1 "}
